target datalayout = "e-m:e-p270:32:32-p271:32:32-p272:64:64-i64:64-i128:128-f80:128-n8:16:32:64-S128"
target triple = "x86_64-pc-linux-gnu"

%class.ref_vector = type { %class.ref_vector_core }
%class.ref_vector_core = type { %class.ref_manager_wrapper, %class.ptr_vector.30 }
%class.ref_manager_wrapper = type { ptr }
%class.ptr_vector.30 = type { %class.vector.31 }
%class.vector.31 = type { ptr }
%class.svector.17 = type { %class.vector.18 }
%class.vector.18 = type { ptr }
%class.seq_util = type { ptr, ptr, ptr, i32, [4 x i8], %"class.seq_util::str", %"class.seq_util::rex" }
%"class.seq_util::str" = type <{ ptr, ptr, i32, [4 x i8] }>
%"class.seq_util::rex" = type { ptr, ptr, i32, %class.vector.43, %class.ref_vector, %"struct.seq_util::rex::info", %"struct.seq_util::rex::info" }
%class.vector.43 = type { ptr }
%"struct.seq_util::rex::info" = type { i32, i8, i32, i32 }
%class.re2automaton = type { ptr, [8 x i8], %class.seq_util, %class.scoped_ptr, %class.scoped_ptr.44, %class.scoped_ptr.45 }
%class.scoped_ptr = type { ptr }
%class.scoped_ptr.44 = type { ptr }
%class.scoped_ptr.45 = type { ptr }
%class.bool_rewriter = type { ptr, i8, i8, i8, i8, i8, i8, i32, i8, i32, i32, i8, %class.ptr_vector.30, %class.ptr_vector.30, %class.svector.17, %class.svector.17 }
%class.seq_rewriter = type <{ %class.seq_util, %class.arith_util, %class.bool_rewriter, %class.re2automaton, %"class.seq_rewriter::op_cache", %class.ref_vector, %class.ref_vector, %class.ref_vector, i8, [7 x i8] }>
%class.arith_util = type { ptr, ptr }
%"class.seq_rewriter::op_cache" = type { i32, %class.ref_vector, %class.hashtable }
%class.hashtable = type { %class.core_hashtable.base.50, [4 x i8] }
%class.core_hashtable.base.50 = type <{ ptr, i32, i32, i32 }>

; Function Attrs: mustprogress nounwind uwtable
define linkonce_odr hidden noundef nonnull align 8 dereferenceable(136) ptr @_ZN12seq_rewriter1uEv(ptr noundef nonnull align 8 dereferenceable(497) %0) #6 comdat align 2 {
  %2 = alloca ptr, align 8
  store ptr %0, ptr %2, align 8, !tbaa !259
  %3 = load ptr, ptr %2, align 8
  %4 = getelementptr inbounds nuw %class.seq_rewriter, ptr %3, i32 0, i32 0
  ret ptr %4
}

; Function Attrs: mustprogress uwtable
define hidden noundef zeroext i1 @_ZN12seq_rewriter7lt_charEP4exprS1_(ptr noundef nonnull align 8 dereferenceable(497) %0, ptr noundef %1, ptr noundef %2) #4 align 2 {
  %4 = alloca ptr, align 8
  %5 = alloca ptr, align 8
  %6 = alloca ptr, align 8
  %7 = alloca i32, align 4
  %8 = alloca i32, align 4
  store ptr %0, ptr %4, align 8, !tbaa !259
  store ptr %1, ptr %5, align 8, !tbaa !8
  store ptr %2, ptr %6, align 8, !tbaa !8
  %9 = load ptr, ptr %4, align 8
  call void @llvm.lifetime.start.p0(i64 4, ptr %7) #3
  call void @llvm.lifetime.start.p0(i64 4, ptr %8) #3
  %10 = call noundef nonnull align 8 dereferenceable(136) ptr @_ZN12seq_rewriter1uEv(ptr noundef nonnull align 8 dereferenceable(497) %9)
  %11 = load ptr, ptr %5, align 8, !tbaa !8
  %12 = call noundef zeroext i1 @_ZNK8seq_util13is_const_charEP4exprRj(ptr noundef nonnull align 8 dereferenceable(136) %10, ptr noundef %11, ptr noundef nonnull align 4 dereferenceable(4) %7)
  br i1 %12, label %13, label %21

13:                                               ; preds = %3
  %14 = call noundef nonnull align 8 dereferenceable(136) ptr @_ZN12seq_rewriter1uEv(ptr noundef nonnull align 8 dereferenceable(497) %9)
  %15 = load ptr, ptr %6, align 8, !tbaa !8
  %16 = call noundef zeroext i1 @_ZNK8seq_util13is_const_charEP4exprRj(ptr noundef nonnull align 8 dereferenceable(136) %14, ptr noundef %15, ptr noundef nonnull align 4 dereferenceable(4) %8)
  br i1 %16, label %17, label %21

17:                                               ; preds = %13
  %18 = load i32, ptr %7, align 4, !tbaa !19
  %19 = load i32, ptr %8, align 4, !tbaa !19
  %20 = icmp ult i32 %18, %19
  br label %21

21:                                               ; preds = %17, %13, %3
  %22 = phi i1 [ false, %13 ], [ false, %3 ], [ %20, %17 ]
  call void @llvm.lifetime.end.p0(i64 4, ptr %8) #3
  call void @llvm.lifetime.end.p0(i64 4, ptr %7) #3
  ret i1 %22
}

; Function Attrs: mustprogress nounwind uwtable
define hidden noundef zeroext i1 @_ZN12seq_rewriter7eq_charEP4exprS1_(ptr noundef nonnull align 8 dereferenceable(497) %0, ptr noundef %1, ptr noundef %2) #6 align 2 {
  %4 = alloca ptr, align 8
  %5 = alloca ptr, align 8
  %6 = alloca ptr, align 8
  store ptr %0, ptr %4, align 8, !tbaa !259
  store ptr %1, ptr %5, align 8, !tbaa !8
  store ptr %2, ptr %6, align 8, !tbaa !8
  %7 = load ptr, ptr %5, align 8, !tbaa !8
  %8 = load ptr, ptr %6, align 8, !tbaa !8
  %9 = icmp eq ptr %7, %8
  ret i1 %9
}

; Function Attrs: mustprogress uwtable
define hidden noundef zeroext i1 @_ZN12seq_rewriter7le_charEP4exprS1_(ptr noundef nonnull align 8 dereferenceable(497) %0, ptr noundef %1, ptr noundef %2) #4 align 2 {
  %4 = alloca ptr, align 8
  %5 = alloca ptr, align 8
  %6 = alloca ptr, align 8
  store ptr %0, ptr %4, align 8, !tbaa !259
  store ptr %1, ptr %5, align 8, !tbaa !8
  store ptr %2, ptr %6, align 8, !tbaa !8
  %7 = load ptr, ptr %4, align 8
  %8 = load ptr, ptr %5, align 8, !tbaa !8
  %9 = load ptr, ptr %6, align 8, !tbaa !8
  %10 = call noundef zeroext i1 @_ZN12seq_rewriter7eq_charEP4exprS1_(ptr noundef nonnull align 8 dereferenceable(497) %7, ptr noundef %8, ptr noundef %9)
  br i1 %10, label %15, label %11

11:                                               ; preds = %3
  %12 = load ptr, ptr %5, align 8, !tbaa !8
  %13 = load ptr, ptr %6, align 8, !tbaa !8
  %14 = call noundef zeroext i1 @_ZN12seq_rewriter7lt_charEP4exprS1_(ptr noundef nonnull align 8 dereferenceable(497) %7, ptr noundef %12, ptr noundef %13)
  br label %15

15:                                               ; preds = %11, %3
  %16 = phi i1 [ true, %3 ], [ %14, %11 ]
  ret i1 %16
}