; Function Attrs: mustprogress uwtable
define hidden noundef zeroext i1 @_ZN12seq_rewriter7le_charEP4exprS1_(ptr noundef nonnull align 8 dereferenceable(497) %0, ptr noundef %1, ptr noundef %2) local_unnamed_addr #3 align 2 {
  %4 = alloca i32, align 4
  %5 = alloca i32, align 4
  %6 = icmp eq ptr %1, %2
  br i1 %6, label %16, label %7

7:                                                ; preds = %3
  call void @llvm.lifetime.start.p0(i64 4, ptr nonnull %4) #28
  call void @llvm.lifetime.start.p0(i64 4, ptr nonnull %5) #28
  %8 = call noundef zeroext i1 @_ZNK8seq_util13is_const_charEP4exprRj(ptr noundef nonnull align 8 dereferenceable(497) %0, ptr noundef %1, ptr noundef nonnull align 4 dereferenceable(4) %4)
  br i1 %8, label %9, label %_ZN12seq_rewriter7lt_charEP4exprS1_.exit

9:                                                ; preds = %7
  %10 = call noundef zeroext i1 @_ZNK8seq_util13is_const_charEP4exprRj(ptr noundef nonnull align 8 dereferenceable(497) %0, ptr noundef %2, ptr noundef nonnull align 4 dereferenceable(4) %5)
  br i1 %10, label %11, label %_ZN12seq_rewriter7lt_charEP4exprS1_.exit

11:                                               ; preds = %9
  %12 = load i32, ptr %4, align 4, !tbaa !101
  %13 = load i32, ptr %5, align 4, !tbaa !101
  %14 = icmp ult i32 %12, %13
  br label %_ZN12seq_rewriter7lt_charEP4exprS1_.exit

_ZN12seq_rewriter7lt_charEP4exprS1_.exit:         ; preds = %7, %9, %11
  %15 = phi i1 [ false, %9 ], [ false, %7 ], [ %14, %11 ]
  call void @llvm.lifetime.end.p0(i64 4, ptr nonnull %5) #28
  call void @llvm.lifetime.end.p0(i64 4, ptr nonnull %4) #28
  br label %16

16:                                               ; preds = %_ZN12seq_rewriter7lt_charEP4exprS1_.exit, %3
  %17 = phi i1 [ true, %3 ], [ %15, %_ZN12seq_rewriter7lt_charEP4exprS1_.exit ]
  ret i1 %17
}